; ModuleID = '9/147.c'
source_filename = "9/147.c"
target datalayout = "e-m:e-p270:32:32-p271:32:32-p272:64:64-i64:64-f80:128-n8:16:32:64-S128"
target triple = "x86_64-pc-linux-gnu"

%struct.pat = type { [10 x i8], i32 }

@.str = private unnamed_addr constant [3 x i8] c"%d\00", align 1
@.str.1 = private unnamed_addr constant [6 x i8] c"%s %d\00", align 1
@pat = common dso_local global [100 x %struct.pat] zeroinitializer, align 16
@str = common dso_local global [100 x %struct.pat] zeroinitializer, align 16
@t = common dso_local global %struct.pat zeroinitializer, align 4
@.str.2 = private unnamed_addr constant [4 x i8] c"%s\0A\00", align 1

; Function Attrs: noinline nounwind uwtable
define dso_local i32 @main() #0 {
  %1 = alloca i32, align 4
  %2 = alloca i32, align 4
  %3 = alloca i32, align 4
  %4 = alloca i32, align 4
  %5 = alloca i32, align 4
  %6 = alloca i32, align 4
  %7 = alloca [100 x i32], align 16
  %8 = alloca [100 x i8], align 16
  store i32 0, i32* %1, align 4
  store i32 -1, i32* %5, align 4
  %9 = call i32 (i8*, ...) @__isoc99_scanf(i8* getelementptr inbounds ([3 x i8], [3 x i8]* @.str, i64 0, i64 0), i32* %2)
  store i32 0, i32* %3, align 4
  br label %10

10:                                               ; preds = %55, %0
  %11 = load i32, i32* %3, align 4
  %12 = load i32, i32* %2, align 4
  %13 = icmp slt i32 %11, %12
  br i1 %13, label %14, label %58

14:                                               ; preds = %10
  %15 = load i32, i32* %3, align 4
  %16 = sext i32 %15 to i64
  %17 = getelementptr inbounds [100 x %struct.pat], [100 x %struct.pat]* @pat, i64 0, i64 %16
  %18 = getelementptr inbounds %struct.pat, %struct.pat* %17, i32 0, i32 0
  %19 = getelementptr inbounds [10 x i8], [10 x i8]* %18, i64 0, i64 0
  %20 = load i32, i32* %3, align 4
  %21 = sext i32 %20 to i64
  %22 = getelementptr inbounds [100 x %struct.pat], [100 x %struct.pat]* @pat, i64 0, i64 %21
  %23 = getelementptr inbounds %struct.pat, %struct.pat* %22, i32 0, i32 1
  %24 = call i32 (i8*, ...) @__isoc99_scanf(i8* getelementptr inbounds ([6 x i8], [6 x i8]* @.str.1, i64 0, i64 0), i8* %19, i32* %23)
  %25 = load i32, i32* %3, align 4
  %26 = sext i32 %25 to i64
  %27 = getelementptr inbounds [100 x %struct.pat], [100 x %struct.pat]* @pat, i64 0, i64 %26
  %28 = getelementptr inbounds %struct.pat, %struct.pat* %27, i32 0, i32 1
  %29 = load i32, i32* %28, align 4
  %30 = icmp sge i32 %29, 60
  br i1 %30, label %31, label %54

31:                                               ; preds = %14
  %32 = load i32, i32* %5, align 4
  %33 = add nsw i32 %32, 1
  store i32 %33, i32* %5, align 4
  %34 = load i32, i32* %5, align 4
  %35 = sext i32 %34 to i64
  %36 = getelementptr inbounds [100 x %struct.pat], [100 x %struct.pat]* @str, i64 0, i64 %35
  %37 = getelementptr inbounds %struct.pat, %struct.pat* %36, i32 0, i32 0
  %38 = getelementptr inbounds [10 x i8], [10 x i8]* %37, i64 0, i64 0
  %39 = load i32, i32* %3, align 4
  %40 = sext i32 %39 to i64
  %41 = getelementptr inbounds [100 x %struct.pat], [100 x %struct.pat]* @pat, i64 0, i64 %40
  %42 = getelementptr inbounds %struct.pat, %struct.pat* %41, i32 0, i32 0
  %43 = getelementptr inbounds [10 x i8], [10 x i8]* %42, i64 0, i64 0
  %44 = call i8* @strcpy(i8* %38, i8* %43) #4
  %45 = load i32, i32* %3, align 4
  %46 = sext i32 %45 to i64
  %47 = getelementptr inbounds [100 x %struct.pat], [100 x %struct.pat]* @pat, i64 0, i64 %46
  %48 = getelementptr inbounds %struct.pat, %struct.pat* %47, i32 0, i32 1
  %49 = load i32, i32* %48, align 4
  %50 = load i32, i32* %5, align 4
  %51 = sext i32 %50 to i64
  %52 = getelementptr inbounds [100 x %struct.pat], [100 x %struct.pat]* @str, i64 0, i64 %51
  %53 = getelementptr inbounds %struct.pat, %struct.pat* %52, i32 0, i32 1
  store i32 %49, i32* %53, align 4
  br label %54

54:                                               ; preds = %31, %14
  br label %55

55:                                               ; preds = %54
  %56 = load i32, i32* %3, align 4
  %57 = add nsw i32 %56, 1
  store i32 %57, i32* %3, align 4
  br label %10

58:                                               ; preds = %10
  %59 = load i32, i32* %5, align 4
  store i32 %59, i32* %3, align 4
  br label %60

60:                                               ; preds = %105, %58
  %61 = load i32, i32* %3, align 4
  %62 = icmp sge i32 %61, 1
  br i1 %62, label %63, label %108

63:                                               ; preds = %60
  store i32 0, i32* %4, align 4
  br label %64

64:                                               ; preds = %101, %63
  %65 = load i32, i32* %4, align 4
  %66 = load i32, i32* %3, align 4
  %67 = icmp slt i32 %65, %66
  br i1 %67, label %68, label %104

68:                                               ; preds = %64
  %69 = load i32, i32* %4, align 4
  %70 = sext i32 %69 to i64
  %71 = getelementptr inbounds [100 x %struct.pat], [100 x %struct.pat]* @str, i64 0, i64 %70
  %72 = getelementptr inbounds %struct.pat, %struct.pat* %71, i32 0, i32 1
  %73 = load i32, i32* %72, align 4
  %74 = load i32, i32* %4, align 4
  %75 = add nsw i32 %74, 1
  %76 = sext i32 %75 to i64
  %77 = getelementptr inbounds [100 x %struct.pat], [100 x %struct.pat]* @str, i64 0, i64 %76
  %78 = getelementptr inbounds %struct.pat, %struct.pat* %77, i32 0, i32 1
  %79 = load i32, i32* %78, align 4
  %80 = icmp slt i32 %73, %79
  br i1 %80, label %81, label %100

81:                                               ; preds = %68
  %82 = load i32, i32* %4, align 4
  %83 = sext i32 %82 to i64
  %84 = getelementptr inbounds [100 x %struct.pat], [100 x %struct.pat]* @str, i64 0, i64 %83
  %85 = bitcast %struct.pat* %84 to i8*
  call void @llvm.memcpy.p0i8.p0i8.i64(i8* align 4 getelementptr inbounds (%struct.pat, %struct.pat* @t, i32 0, i32 0, i32 0), i8* align 16 %85, i64 16, i1 false)
  %86 = load i32, i32* %4, align 4
  %87 = sext i32 %86 to i64
  %88 = getelementptr inbounds [100 x %struct.pat], [100 x %struct.pat]* @str, i64 0, i64 %87
  %89 = load i32, i32* %4, align 4
  %90 = add nsw i32 %89, 1
  %91 = sext i32 %90 to i64
  %92 = getelementptr inbounds [100 x %struct.pat], [100 x %struct.pat]* @str, i64 0, i64 %91
  %93 = bitcast %struct.pat* %88 to i8*
  %94 = bitcast %struct.pat* %92 to i8*
  call void @llvm.memcpy.p0i8.p0i8.i64(i8* align 16 %93, i8* align 16 %94, i64 16, i1 false)
  %95 = load i32, i32* %4, align 4
  %96 = add nsw i32 %95, 1
  %97 = sext i32 %96 to i64
  %98 = getelementptr inbounds [100 x %struct.pat], [100 x %struct.pat]* @str, i64 0, i64 %97
  %99 = bitcast %struct.pat* %98 to i8*
  call void @llvm.memcpy.p0i8.p0i8.i64(i8* align 16 %99, i8* align 4 getelementptr inbounds (%struct.pat, %struct.pat* @t, i32 0, i32 0, i32 0), i64 16, i1 false)
  br label %100

100:                                              ; preds = %81, %68
  br label %101

101:                                              ; preds = %100
  %102 = load i32, i32* %4, align 4
  %103 = add nsw i32 %102, 1
  store i32 %103, i32* %4, align 4
  br label %64

104:                                              ; preds = %64
  br label %105

105:                                              ; preds = %104
  %106 = load i32, i32* %3, align 4
  %107 = add nsw i32 %106, -1
  store i32 %107, i32* %3, align 4
  br label %60

108:                                              ; preds = %60
  store i32 0, i32* %3, align 4
  br label %109

109:                                              ; preds = %132, %108
  %110 = load i32, i32* %3, align 4
  %111 = load i32, i32* %2, align 4
  %112 = icmp slt i32 %110, %111
  br i1 %112, label %113, label %135

113:                                              ; preds = %109
  %114 = load i32, i32* %3, align 4
  %115 = sext i32 %114 to i64
  %116 = getelementptr inbounds [100 x %struct.pat], [100 x %struct.pat]* @pat, i64 0, i64 %115
  %117 = getelementptr inbounds %struct.pat, %struct.pat* %116, i32 0, i32 1
  %118 = load i32, i32* %117, align 4
  %119 = icmp slt i32 %118, 60
  br i1 %119, label %120, label %131

120:                                              ; preds = %113
  %121 = load i32, i32* %5, align 4
  %122 = add nsw i32 %121, 1
  store i32 %122, i32* %5, align 4
  %123 = load i32, i32* %5, align 4
  %124 = sext i32 %123 to i64
  %125 = getelementptr inbounds [100 x %struct.pat], [100 x %struct.pat]* @str, i64 0, i64 %124
  %126 = load i32, i32* %3, align 4
  %127 = sext i32 %126 to i64
  %128 = getelementptr inbounds [100 x %struct.pat], [100 x %struct.pat]* @pat, i64 0, i64 %127
  %129 = bitcast %struct.pat* %125 to i8*
  %130 = bitcast %struct.pat* %128 to i8*
  call void @llvm.memcpy.p0i8.p0i8.i64(i8* align 16 %129, i8* align 16 %130, i64 16, i1 false)
  br label %131

131:                                              ; preds = %120, %113
  br label %132

132:                                              ; preds = %131
  %133 = load i32, i32* %3, align 4
  %134 = add nsw i32 %133, 1
  store i32 %134, i32* %3, align 4
  br label %109

135:                                              ; preds = %109
  store i32 0, i32* %3, align 4
  br label %136

136:                                              ; preds = %147, %135
  %137 = load i32, i32* %3, align 4
  %138 = load i32, i32* %2, align 4
  %139 = icmp slt i32 %137, %138
  br i1 %139, label %140, label %150

140:                                              ; preds = %136
  %141 = load i32, i32* %3, align 4
  %142 = sext i32 %141 to i64
  %143 = getelementptr inbounds [100 x %struct.pat], [100 x %struct.pat]* @str, i64 0, i64 %142
  %144 = getelementptr inbounds %struct.pat, %struct.pat* %143, i32 0, i32 0
  %145 = getelementptr inbounds [10 x i8], [10 x i8]* %144, i64 0, i64 0
  %146 = call i32 (i8*, ...) @printf(i8* getelementptr inbounds ([4 x i8], [4 x i8]* @.str.2, i64 0, i64 0), i8* %145)
  br label %147

147:                                              ; preds = %140
  %148 = load i32, i32* %3, align 4
  %149 = add nsw i32 %148, 1
  store i32 %149, i32* %3, align 4
  br label %136

150:                                              ; preds = %136
  %151 = load i32, i32* %1, align 4
  ret i32 %151
}

declare dso_local i32 @__isoc99_scanf(i8*, ...) #1

; Function Attrs: nounwind
declare dso_local i8* @strcpy(i8*, i8*) #2

; Function Attrs: argmemonly nounwind willreturn
declare void @llvm.memcpy.p0i8.p0i8.i64(i8* noalias nocapture writeonly, i8* noalias nocapture readonly, i64, i1 immarg) #3

declare dso_local i32 @printf(i8*, ...) #1


!llvm.module.flags = !{!0}
!llvm.ident = !{!1}

!0 = !{i32 1, !"wchar_size", i32 4}
!1 = !{!"clang version 10.0.0-4ubuntu1 "}
